; Function Attrs: nounwind uwtable
define range(i32 0, 2) i32 @lv_circle_buf_read(ptr noundef %0, ptr noundef %1) local_unnamed_addr #0 {
  %.not = icmp eq ptr %0, null
  br i1 %.not, label %.preheader, label %lv_circle_buf_is_empty.exit

.preheader:                                       ; preds = %2, %.preheader
  br label %.preheader

lv_circle_buf_is_empty.exit:                      ; preds = %2
  %3 = getelementptr inbounds nuw i8, ptr %0, i64 28
  %4 = load i32, ptr %3, align 4, !tbaa !12
  %5 = getelementptr inbounds nuw i8, ptr %0, i64 24
  %6 = load i32, ptr %5, align 8, !tbaa !3
  %.not2.i = icmp eq i32 %4, %6
  br i1 %.not2.i, label %7, label %8

7:                                                ; preds = %lv_circle_buf_is_empty.exit
  store i32 0, ptr %5, align 8, !tbaa !3
  store i32 0, ptr %3, align 4, !tbaa !12
  br label %18

8:                                                ; preds = %lv_circle_buf_is_empty.exit
  %.not10.i = icmp eq ptr %1, null
  br i1 %.not10.i, label %.preheader13.i, label %lv_circle_buf_peek_at.exit

.preheader13.i:                                   ; preds = %8, %.preheader13.i
  br label %.preheader13.i

lv_circle_buf_peek_at.exit:                       ; preds = %8
  %9 = tail call i32 @lv_array_capacity(ptr noundef nonnull %0) #6
  %10 = urem i32 %6, %9
  %11 = tail call ptr @lv_array_at(ptr noundef nonnull %0, i32 noundef %10) #6
  %12 = getelementptr inbounds nuw i8, ptr %0, i64 16
  %13 = load i32, ptr %12, align 8, !tbaa !20
  %14 = zext i32 %13 to i64
  %15 = tail call ptr @lv_memcpy(ptr noundef nonnull %1, ptr noundef %11, i64 noundef %14) #6
  %16 = load i32, ptr %5, align 8, !tbaa !3
  %17 = add i32 %16, 1
  store i32 %17, ptr %5, align 8, !tbaa !3
  br label %18

18:                                               ; preds = %lv_circle_buf_peek_at.exit, %7
  %.0 = phi i32 [ 0, %7 ], [ 1, %lv_circle_buf_peek_at.exit ]
  ret i32 %.0
}